target datalayout = "e-m:e-p270:32:32-p271:32:32-p272:64:64-i64:64-i128:128-f80:128-n8:16:32:64-S128"
target triple = "x86_64-unknown-linux-gnu"

%"class.std::set.11" = type { %"class.std::_Rb_tree.12" }
%"class.std::_Rb_tree.12" = type { %"struct.std::_Rb_tree<QuantLib::Observer *, QuantLib::Observer *, std::_Identity<QuantLib::Observer *>, std::less<QuantLib::Observer *>>::_Rb_tree_impl" }
%"struct.std::_Rb_tree<QuantLib::Observer *, QuantLib::Observer *, std::_Identity<QuantLib::Observer *>, std::less<QuantLib::Observer *>>::_Rb_tree_impl" = type { [8 x i8], %"struct.std::_Rb_tree_header" }
%"struct.std::_Rb_tree_header" = type { %"struct.std::_Rb_tree_node_base", i64 }
%"struct.std::_Rb_tree_node_base" = type { i32, ptr, ptr, ptr }
%"class.boost::detail::shared_count" = type { ptr }
%"class.QuantLib::Array" = type { %"class.std::unique_ptr", i64 }
%"class.std::unique_ptr" = type { %"struct.std::__uniq_ptr_data" }
%"struct.std::__uniq_ptr_data" = type { %"class.std::__uniq_ptr_impl" }
%"class.std::__uniq_ptr_impl" = type { %"class.std::tuple" }
%"class.std::tuple" = type { %"struct.std::_Tuple_impl" }
%"struct.std::_Tuple_impl" = type { %"struct.std::_Head_base.1" }
%"struct.std::_Head_base.1" = type { ptr }
%"class.std::set" = type { %"class.std::_Rb_tree" }
%"class.std::_Rb_tree" = type { %"struct.std::_Rb_tree<boost::shared_ptr<QuantLib::Observable>, boost::shared_ptr<QuantLib::Observable>, std::_Identity<boost::shared_ptr<QuantLib::Observable>>, std::less<boost::shared_ptr<QuantLib::Observable>>>::_Rb_tree_impl" }
%"struct.std::_Rb_tree<boost::shared_ptr<QuantLib::Observable>, boost::shared_ptr<QuantLib::Observable>, std::_Identity<boost::shared_ptr<QuantLib::Observable>>, std::less<boost::shared_ptr<QuantLib::Observable>>>::_Rb_tree_impl" = type { [8 x i8], %"struct.std::_Rb_tree_header" }
%"class.QuantLib::Observable" = type { ptr, %"class.std::set.11" }
%"class.QuantLib::Handle" = type { %"class.boost::shared_ptr.35" }
%"class.boost::shared_ptr.35" = type { ptr, %"class.boost::detail::shared_count" }
%"class.QuantLib::Parameter" = type { %"class.boost::shared_ptr.36", %"class.QuantLib::Array", %"class.QuantLib::Constraint" }
%"class.boost::shared_ptr.36" = type { ptr, %"class.boost::detail::shared_count" }
%"class.QuantLib::Constraint" = type { %"class.boost::shared_ptr.37" }
%"class.boost::shared_ptr.37" = type { ptr, %"class.boost::detail::shared_count" }
%"class.QuantLib::OneFactorAffineModel.base" = type { %"class.QuantLib::OneFactorModel.base", %"class.QuantLib::AffineModel.base" }
%"class.QuantLib::OneFactorModel.base" = type { %"class.QuantLib::ShortRateModel.base" }
%"class.QuantLib::ShortRateModel.base" = type { %"class.QuantLib::CalibratedModel.base" }
%"class.QuantLib::CalibratedModel.base" = type <{ ptr, %"class.std::vector.29", %"class.boost::shared_ptr.34", i32, [4 x i8], %"class.QuantLib::Array", i32 }>
%"class.std::vector.29" = type { %"struct.std::_Vector_base.30" }
%"struct.std::_Vector_base.30" = type { %"struct.std::_Vector_base<QuantLib::Parameter, std::allocator<QuantLib::Parameter>>::_Vector_impl" }
%"struct.std::_Vector_base<QuantLib::Parameter, std::allocator<QuantLib::Parameter>>::_Vector_impl" = type { %"struct.std::_Vector_base<QuantLib::Parameter, std::allocator<QuantLib::Parameter>>::_Vector_impl_data" }
%"struct.std::_Vector_base<QuantLib::Parameter, std::allocator<QuantLib::Parameter>>::_Vector_impl_data" = type { ptr, ptr, ptr }
%"class.boost::shared_ptr.34" = type { ptr, %"class.boost::detail::shared_count" }
%"class.QuantLib::AffineModel.base" = type { ptr }
%"class.QuantLib::Observer" = type { ptr, %"class.std::set" }
%"class.QuantLib::Vasicek" = type { %"class.QuantLib::OneFactorAffineModel.base", double, ptr, ptr, ptr, ptr, %"class.QuantLib::Observer", %"class.QuantLib::Observable" }
%"class.boost::shared_ptr.38" = type { ptr, %"class.boost::detail::shared_count" }
%"class.QuantLib::TermStructureConsistentModel" = type { ptr, %"class.QuantLib::Handle", %"class.QuantLib::Observable" }

@.str.19 = private unnamed_addr constant [8 x i8] c"px != 0\00", align 1
@__PRETTY_FUNCTION__._ZNK5boost10shared_ptrIN8QuantLib9Parameter4ImplEEptEv = private unnamed_addr constant [147 x i8] c"typename boost::detail::sp_member_access<T>::type boost::shared_ptr<QuantLib::Parameter::Impl>::operator->() const [T = QuantLib::Parameter::Impl]\00", align 1
@.str.20 = private unnamed_addr constant [102 x i8] c"generated/home/dtcxzyw/WorkSpace/SDK/vcpkg/installed/x64-linux/include/boost/smart_ptr/shared_ptr.hpp\00", align 1
@__PRETTY_FUNCTION__._ZNK5boost10shared_ptrIN8QuantLib18YieldTermStructureEEptEv = private unnamed_addr constant [153 x i8] c"typename boost::detail::sp_member_access<T>::type boost::shared_ptr<QuantLib::YieldTermStructure>::operator->() const [T = QuantLib::YieldTermStructure]\00", align 1

; Function Attrs: mustprogress uwtable
define linkonce_odr noundef ptr @_ZNK5boost10shared_ptrIN8QuantLib9Parameter4ImplEEptEv(ptr noundef nonnull align 8 dereferenceable(16) %this) #1 comdat align 2 {
entry:
  %this.addr = alloca ptr, align 8
  store ptr %this, ptr %this.addr, align 8, !tbaa !3
  %this1 = load ptr, ptr %this.addr, align 8
  %px = getelementptr inbounds nuw %"class.boost::shared_ptr.36", ptr %this1, i32 0, i32 0
  %0 = load ptr, ptr %px, align 8, !tbaa !125
  %cmp = icmp ne ptr %0, null
  %lnot = xor i1 %cmp, true
  %lnot2 = xor i1 %lnot, true
  %conv = zext i1 %lnot2 to i64
  %expval = call i64 @llvm.expect.i64(i64 %conv, i64 1)
  %tobool = icmp ne i64 %expval, 0
  br i1 %tobool, label %cond.true, label %cond.false

cond.true:                                        ; preds = %entry
  br label %cond.end

cond.false:                                       ; preds = %entry
  call void @_ZN5boost16assertion_failedEPKcS1_S1_l(ptr noundef @.str.19, ptr noundef @__PRETTY_FUNCTION__._ZNK5boost10shared_ptrIN8QuantLib9Parameter4ImplEEptEv, ptr noundef @.str.20, i64 noundef 784)
  br label %cond.end

cond.end:                                         ; preds = %cond.false, %cond.true
  %px3 = getelementptr inbounds nuw %"class.boost::shared_ptr.36", ptr %this1, i32 0, i32 0
  %1 = load ptr, ptr %px3, align 8, !tbaa !125
  ret ptr %1
}

; Function Attrs: mustprogress uwtable
define linkonce_odr noundef double @_ZNK8QuantLib9ParameterclEd(ptr noundef nonnull align 8 dereferenceable(48) %this, double noundef %t) #1 comdat align 2 {
entry:
  %this.addr = alloca ptr, align 8
  %t.addr = alloca double, align 8
  store ptr %this, ptr %this.addr, align 8, !tbaa !3
  store double %t, ptr %t.addr, align 8, !tbaa !11
  %this1 = load ptr, ptr %this.addr, align 8
  %impl_ = getelementptr inbounds nuw %"class.QuantLib::Parameter", ptr %this1, i32 0, i32 0
  %call = call noundef ptr @_ZNK5boost10shared_ptrIN8QuantLib9Parameter4ImplEEptEv(ptr noundef nonnull align 8 dereferenceable(16) %impl_)
  %params_ = getelementptr inbounds nuw %"class.QuantLib::Parameter", ptr %this1, i32 0, i32 1
  %0 = load double, ptr %t.addr, align 8, !tbaa !11
  %vtable = load ptr, ptr %call, align 8, !tbaa !7
  %vfn = getelementptr inbounds ptr, ptr %vtable, i64 2
  %1 = load ptr, ptr %vfn, align 8
  %call2 = call noundef double %1(ptr noundef nonnull align 8 dereferenceable(8) %call, ptr noundef nonnull align 8 dereferenceable(16) %params_, double noundef %0)
  ret double %call2
}

; Function Attrs: mustprogress uwtable
define linkonce_odr noundef ptr @_ZNK5boost10shared_ptrIN8QuantLib18YieldTermStructureEEptEv(ptr noundef nonnull align 8 dereferenceable(16) %this) #1 comdat align 2 {
entry:
  %this.addr = alloca ptr, align 8
  store ptr %this, ptr %this.addr, align 8, !tbaa !3
  %this1 = load ptr, ptr %this.addr, align 8
  %px = getelementptr inbounds nuw %"class.boost::shared_ptr.38", ptr %this1, i32 0, i32 0
  %0 = load ptr, ptr %px, align 8, !tbaa !43
  %cmp = icmp ne ptr %0, null
  %lnot = xor i1 %cmp, true
  %lnot2 = xor i1 %lnot, true
  %conv = zext i1 %lnot2 to i64
  %expval = call i64 @llvm.expect.i64(i64 %conv, i64 1)
  %tobool = icmp ne i64 %expval, 0
  br i1 %tobool, label %cond.true, label %cond.false

cond.true:                                        ; preds = %entry
  br label %cond.end

cond.false:                                       ; preds = %entry
  call void @_ZN5boost16assertion_failedEPKcS1_S1_l(ptr noundef @.str.19, ptr noundef @__PRETTY_FUNCTION__._ZNK5boost10shared_ptrIN8QuantLib18YieldTermStructureEEptEv, ptr noundef @.str.20, i64 noundef 784)
  br label %cond.end

cond.end:                                         ; preds = %cond.false, %cond.true
  %px3 = getelementptr inbounds nuw %"class.boost::shared_ptr.38", ptr %this1, i32 0, i32 0
  %1 = load ptr, ptr %px3, align 8, !tbaa !43
  ret ptr %1
}

; Function Attrs: mustprogress nounwind uwtable
define linkonce_odr noundef nonnull align 8 dereferenceable(16) ptr @_ZNK8QuantLib28TermStructureConsistentModel13termStructureEv(ptr noundef nonnull align 8 dereferenceable(24) %this) #3 comdat align 2 {
entry:
  %this.addr = alloca ptr, align 8
  store ptr %this, ptr %this.addr, align 8, !tbaa !3
  %this1 = load ptr, ptr %this.addr, align 8
  %termStructure_ = getelementptr inbounds nuw %"class.QuantLib::TermStructureConsistentModel", ptr %this1, i32 0, i32 1
  ret ptr %termStructure_
}

; Function Attrs: mustprogress uwtable
define linkonce_odr noundef double @_ZNK8QuantLib7Vasicek5sigmaEv(ptr noundef nonnull align 8 dereferenceable(128) %this) #1 comdat align 2 {
entry:
  %this.addr = alloca ptr, align 8
  store ptr %this, ptr %this.addr, align 8, !tbaa !3
  %this1 = load ptr, ptr %this.addr, align 8
  %sigma_ = getelementptr inbounds nuw %"class.QuantLib::Vasicek", ptr %this1, i32 0, i32 4
  %0 = load ptr, ptr %sigma_, align 8, !tbaa !57
  %call = call noundef double @_ZNK8QuantLib9ParameterclEd(ptr noundef nonnull align 8 dereferenceable(48) %0, double noundef 0.000000e+00)
  ret double %call
}

; Function Attrs: mustprogress nounwind uwtable
define linkonce_odr noundef double @_ZNSt14numeric_limitsIdE7epsilonEv() #3 comdat align 2 {
entry:
  ret double 0x3CB0000000000000
}

; Function Attrs: mustprogress uwtable
define linkonce_odr noundef double @_ZNK8QuantLib7Vasicek1aEv(ptr noundef nonnull align 8 dereferenceable(128) %this) #1 comdat align 2 {
entry:
  %this.addr = alloca ptr, align 8
  store ptr %this, ptr %this.addr, align 8, !tbaa !3
  %this1 = load ptr, ptr %this.addr, align 8
  %a_ = getelementptr inbounds nuw %"class.QuantLib::Vasicek", ptr %this1, i32 0, i32 2
  %0 = load ptr, ptr %a_, align 8, !tbaa !56
  %call = call noundef double @_ZNK8QuantLib9ParameterclEd(ptr noundef nonnull align 8 dereferenceable(48) %0, double noundef 0.000000e+00)
  ret double %call
}

; Function Attrs: mustprogress uwtable
define noundef double @_ZNK8QuantLib9HullWhite18discountBondOptionENS_6Option4TypeEddd(ptr noundef nonnull align 8 dereferenceable(200) %this, i32 noundef %type, double noundef %strike, double noundef %maturity, double noundef %bondMaturity) unnamed_addr #1 align 2 {
entry:
  %this.addr = alloca ptr, align 8
  %type.addr = alloca i32, align 4
  %strike.addr = alloca double, align 8
  %maturity.addr = alloca double, align 8
  %bondMaturity.addr = alloca double, align 8
  %_a = alloca double, align 8
  %v = alloca double, align 8
  %f = alloca double, align 8
  %k = alloca double, align 8
  store ptr %this, ptr %this.addr, align 8, !tbaa !3
  store i32 %type, ptr %type.addr, align 4, !tbaa !26
  store double %strike, ptr %strike.addr, align 8, !tbaa !11
  store double %maturity, ptr %maturity.addr, align 8, !tbaa !11
  store double %bondMaturity, ptr %bondMaturity.addr, align 8, !tbaa !11
  %this1 = load ptr, ptr %this.addr, align 8
  call void @llvm.lifetime.start.p0(i64 8, ptr %_a) #16
  %call = call noundef double @_ZNK8QuantLib7Vasicek1aEv(ptr noundef nonnull align 8 dereferenceable(128) %this1)
  store double %call, ptr %_a, align 8, !tbaa !11
  call void @llvm.lifetime.start.p0(i64 8, ptr %v) #16
  %0 = load double, ptr %_a, align 8, !tbaa !11
  %call2 = call noundef double @_ZNSt14numeric_limitsIdE7epsilonEv() #16
  %call3 = call double @sqrt(double noundef %call2) #16, !tbaa !52
  %cmp = fcmp olt double %0, %call3
  br i1 %cmp, label %if.then, label %if.else

if.then:                                          ; preds = %entry
  %call4 = call noundef double @_ZNK8QuantLib7Vasicek5sigmaEv(ptr noundef nonnull align 8 dereferenceable(128) %this1)
  %1 = load double, ptr %maturity.addr, align 8, !tbaa !11
  %2 = load double, ptr %bondMaturity.addr, align 8, !tbaa !11
  %vtable = load ptr, ptr %this1, align 8, !tbaa !7
  %vfn = getelementptr inbounds ptr, ptr %vtable, i64 11
  %3 = load ptr, ptr %vfn, align 8
  %call5 = call noundef double %3(ptr noundef nonnull align 8 dereferenceable(128) %this1, double noundef %1, double noundef %2)
  %mul = fmul double %call4, %call5
  %4 = load double, ptr %maturity.addr, align 8, !tbaa !11
  %call6 = call double @sqrt(double noundef %4) #16, !tbaa !52
  %mul7 = fmul double %mul, %call6
  store double %mul7, ptr %v, align 8, !tbaa !11
  br label %if.end

if.else:                                          ; preds = %entry
  %call8 = call noundef double @_ZNK8QuantLib7Vasicek5sigmaEv(ptr noundef nonnull align 8 dereferenceable(128) %this1)
  %5 = load double, ptr %maturity.addr, align 8, !tbaa !11
  %6 = load double, ptr %bondMaturity.addr, align 8, !tbaa !11
  %vtable9 = load ptr, ptr %this1, align 8, !tbaa !7
  %vfn10 = getelementptr inbounds ptr, ptr %vtable9, i64 11
  %7 = load ptr, ptr %vfn10, align 8
  %call11 = call noundef double %7(ptr noundef nonnull align 8 dereferenceable(128) %this1, double noundef %5, double noundef %6)
  %mul12 = fmul double %call8, %call11
  %8 = load double, ptr %_a, align 8, !tbaa !11
  %mul13 = fmul double -2.000000e+00, %8
  %9 = load double, ptr %maturity.addr, align 8, !tbaa !11
  %mul14 = fmul double %mul13, %9
  %call15 = call double @exp(double noundef %mul14) #16, !tbaa !52
  %sub = fsub double 1.000000e+00, %call15
  %mul16 = fmul double 5.000000e-01, %sub
  %10 = load double, ptr %_a, align 8, !tbaa !11
  %div = fdiv double %mul16, %10
  %call17 = call double @sqrt(double noundef %div) #16, !tbaa !52
  %mul18 = fmul double %mul12, %call17
  store double %mul18, ptr %v, align 8, !tbaa !11
  br label %if.end

if.end:                                           ; preds = %if.else, %if.then
  call void @llvm.lifetime.start.p0(i64 8, ptr %f) #16
  %add.ptr = getelementptr inbounds i8, ptr %this1, i64 128
  %call19 = call noundef nonnull align 8 dereferenceable(16) ptr @_ZNK8QuantLib28TermStructureConsistentModel13termStructureEv(ptr noundef nonnull align 8 dereferenceable(24) %add.ptr)
  %call20 = call noundef nonnull align 8 dereferenceable(16) ptr @_ZNK8QuantLib6HandleINS_18YieldTermStructureEEptEv(ptr noundef nonnull align 8 dereferenceable(16) %call19)
  %call21 = call noundef ptr @_ZNK5boost10shared_ptrIN8QuantLib18YieldTermStructureEEptEv(ptr noundef nonnull align 8 dereferenceable(16) %call20)
  %11 = load double, ptr %bondMaturity.addr, align 8, !tbaa !11
  %call22 = call noundef double @_ZNK8QuantLib18YieldTermStructure8discountEdb(ptr noundef nonnull align 8 dereferenceable(152) %call21, double noundef %11, i1 noundef zeroext false)
  store double %call22, ptr %f, align 8, !tbaa !11
  call void @llvm.lifetime.start.p0(i64 8, ptr %k) #16
  %add.ptr23 = getelementptr inbounds i8, ptr %this1, i64 128
  %call24 = call noundef nonnull align 8 dereferenceable(16) ptr @_ZNK8QuantLib28TermStructureConsistentModel13termStructureEv(ptr noundef nonnull align 8 dereferenceable(24) %add.ptr23)
  %call25 = call noundef nonnull align 8 dereferenceable(16) ptr @_ZNK8QuantLib6HandleINS_18YieldTermStructureEEptEv(ptr noundef nonnull align 8 dereferenceable(16) %call24)
  %call26 = call noundef ptr @_ZNK5boost10shared_ptrIN8QuantLib18YieldTermStructureEEptEv(ptr noundef nonnull align 8 dereferenceable(16) %call25)
  %12 = load double, ptr %maturity.addr, align 8, !tbaa !11
  %call27 = call noundef double @_ZNK8QuantLib18YieldTermStructure8discountEdb(ptr noundef nonnull align 8 dereferenceable(152) %call26, double noundef %12, i1 noundef zeroext false)
  %13 = load double, ptr %strike.addr, align 8, !tbaa !11
  %mul28 = fmul double %call27, %13
  store double %mul28, ptr %k, align 8, !tbaa !11
  %14 = load i32, ptr %type.addr, align 4, !tbaa !26
  %15 = load double, ptr %k, align 8, !tbaa !11
  %16 = load double, ptr %f, align 8, !tbaa !11
  %17 = load double, ptr %v, align 8, !tbaa !11
  %call29 = call noundef double @_ZN8QuantLib12blackFormulaENS_6Option4TypeEddddd(i32 noundef %14, double noundef %15, double noundef %16, double noundef %17, double noundef 1.000000e+00, double noundef 0.000000e+00)
  call void @llvm.lifetime.end.p0(i64 8, ptr %k) #16
  call void @llvm.lifetime.end.p0(i64 8, ptr %f) #16
  call void @llvm.lifetime.end.p0(i64 8, ptr %v) #16
  call void @llvm.lifetime.end.p0(i64 8, ptr %_a) #16
  ret double %call29
}