; Function Attrs: mustprogress uwtable
define noundef double @_ZNK8QuantLib9HullWhite18discountBondOptionENS_6Option4TypeEddd(ptr noundef nonnull align 8 dereferenceable(200) %this, i32 noundef %type, double noundef %strike, double noundef %maturity, double noundef %bondMaturity) unnamed_addr #1 align 2 {
entry:
  %a_.i = getelementptr inbounds nuw i8, ptr %this, i64 96
  %0 = load ptr, ptr %a_.i, align 8, !tbaa !84
  %1 = load ptr, ptr %0, align 8, !tbaa !52
  %cmp.not.i.i.i = icmp eq ptr %1, null
  br i1 %cmp.not.i.i.i, label %cond.false.i.i.i, label %_ZNK8QuantLib7Vasicek1aEv.exit, !prof !41

cond.false.i.i.i:                                 ; preds = %entry
  tail call void @_ZN5boost16assertion_failedEPKcS1_S1_l(ptr noundef nonnull @.str.19, ptr noundef nonnull @__PRETTY_FUNCTION__._ZNK5boost10shared_ptrIN8QuantLib9Parameter4ImplEEptEv, ptr noundef nonnull @.str.20, i64 noundef 784)
  %.pre.i.i.i = load ptr, ptr %0, align 8, !tbaa !52
  br label %_ZNK8QuantLib7Vasicek1aEv.exit

_ZNK8QuantLib7Vasicek1aEv.exit:                   ; preds = %entry, %cond.false.i.i.i
  %2 = phi ptr [ %1, %entry ], [ %.pre.i.i.i, %cond.false.i.i.i ]
  %params_.i.i = getelementptr inbounds nuw i8, ptr %0, i64 16
  %vtable.i.i = load ptr, ptr %2, align 8, !tbaa !14
  %vfn.i.i = getelementptr inbounds i8, ptr %vtable.i.i, i64 16
  %3 = load ptr, ptr %vfn.i.i, align 8
  %call2.i.i = tail call noundef double %3(ptr noundef nonnull align 8 dereferenceable(8) %2, ptr noundef nonnull align 8 dereferenceable(16) %params_.i.i, double noundef 0.000000e+00)
  %cmp = fcmp olt double %call2.i.i, 0x3E50000000000000
  %sigma_.i = getelementptr inbounds nuw i8, ptr %this, i64 112
  %4 = load ptr, ptr %sigma_.i, align 8, !tbaa !85
  %5 = load ptr, ptr %4, align 8, !tbaa !52
  %cmp.not.i.i.i9 = icmp eq ptr %5, null
  br i1 %cmp, label %if.then, label %if.else

if.then:                                          ; preds = %_ZNK8QuantLib7Vasicek1aEv.exit
  br i1 %cmp.not.i.i.i9, label %cond.false.i.i.i14, label %_ZNK8QuantLib7Vasicek5sigmaEv.exit, !prof !41

cond.false.i.i.i14:                               ; preds = %if.then
  tail call void @_ZN5boost16assertion_failedEPKcS1_S1_l(ptr noundef nonnull @.str.19, ptr noundef nonnull @__PRETTY_FUNCTION__._ZNK5boost10shared_ptrIN8QuantLib9Parameter4ImplEEptEv, ptr noundef nonnull @.str.20, i64 noundef 784)
  %.pre.i.i.i15 = load ptr, ptr %4, align 8, !tbaa !52
  br label %_ZNK8QuantLib7Vasicek5sigmaEv.exit

_ZNK8QuantLib7Vasicek5sigmaEv.exit:               ; preds = %if.then, %cond.false.i.i.i14
  %6 = phi ptr [ %5, %if.then ], [ %.pre.i.i.i15, %cond.false.i.i.i14 ]
  %params_.i.i10 = getelementptr inbounds nuw i8, ptr %4, i64 16
  %vtable.i.i11 = load ptr, ptr %6, align 8, !tbaa !14
  %vfn.i.i12 = getelementptr inbounds i8, ptr %vtable.i.i11, i64 16
  %7 = load ptr, ptr %vfn.i.i12, align 8
  %call2.i.i13 = tail call noundef double %7(ptr noundef nonnull align 8 dereferenceable(8) %6, ptr noundef nonnull align 8 dereferenceable(16) %params_.i.i10, double noundef 0.000000e+00)
  %vtable = load ptr, ptr %this, align 8, !tbaa !14
  %vfn = getelementptr inbounds i8, ptr %vtable, i64 88
  %8 = load ptr, ptr %vfn, align 8
  %call5 = tail call noundef double %8(ptr noundef nonnull align 8 dereferenceable(128) %this, double noundef %maturity, double noundef %bondMaturity)
  %mul = fmul double %call2.i.i13, %call5
  br label %if.end

if.else:                                          ; preds = %_ZNK8QuantLib7Vasicek1aEv.exit
  br i1 %cmp.not.i.i.i9, label %cond.false.i.i.i22, label %_ZNK8QuantLib7Vasicek5sigmaEv.exit24, !prof !41

cond.false.i.i.i22:                               ; preds = %if.else
  tail call void @_ZN5boost16assertion_failedEPKcS1_S1_l(ptr noundef nonnull @.str.19, ptr noundef nonnull @__PRETTY_FUNCTION__._ZNK5boost10shared_ptrIN8QuantLib9Parameter4ImplEEptEv, ptr noundef nonnull @.str.20, i64 noundef 784)
  %.pre.i.i.i23 = load ptr, ptr %4, align 8, !tbaa !52
  br label %_ZNK8QuantLib7Vasicek5sigmaEv.exit24

_ZNK8QuantLib7Vasicek5sigmaEv.exit24:             ; preds = %if.else, %cond.false.i.i.i22
  %9 = phi ptr [ %5, %if.else ], [ %.pre.i.i.i23, %cond.false.i.i.i22 ]
  %params_.i.i18 = getelementptr inbounds nuw i8, ptr %4, i64 16
  %vtable.i.i19 = load ptr, ptr %9, align 8, !tbaa !14
  %vfn.i.i20 = getelementptr inbounds i8, ptr %vtable.i.i19, i64 16
  %10 = load ptr, ptr %vfn.i.i20, align 8
  %call2.i.i21 = tail call noundef double %10(ptr noundef nonnull align 8 dereferenceable(8) %9, ptr noundef nonnull align 8 dereferenceable(16) %params_.i.i18, double noundef 0.000000e+00)
  %vtable9 = load ptr, ptr %this, align 8, !tbaa !14
  %vfn10 = getelementptr inbounds i8, ptr %vtable9, i64 88
  %11 = load ptr, ptr %vfn10, align 8
  %call11 = tail call noundef double %11(ptr noundef nonnull align 8 dereferenceable(128) %this, double noundef %maturity, double noundef %bondMaturity)
  %mul12 = fmul double %call2.i.i21, %call11
  %mul13 = fmul double %call2.i.i, -2.000000e+00
  %mul14 = fmul double %maturity, %mul13
  %call15 = tail call double @exp(double noundef %mul14) #29, !tbaa !148
  %sub = fsub double 1.000000e+00, %call15
  %mul16 = fmul double %sub, 5.000000e-01
  %div = fdiv double %mul16, %call2.i.i
  br label %if.end

if.end:                                           ; preds = %_ZNK8QuantLib7Vasicek5sigmaEv.exit24, %_ZNK8QuantLib7Vasicek5sigmaEv.exit
  %div.sink = phi double [ %div, %_ZNK8QuantLib7Vasicek5sigmaEv.exit24 ], [ %maturity, %_ZNK8QuantLib7Vasicek5sigmaEv.exit ]
  %mul12.sink = phi double [ %mul12, %_ZNK8QuantLib7Vasicek5sigmaEv.exit24 ], [ %mul, %_ZNK8QuantLib7Vasicek5sigmaEv.exit ]
  %call17 = tail call double @sqrt(double noundef %div.sink) #29, !tbaa !148
  %termStructure_.i = getelementptr inbounds i8, ptr %this, i64 136
  %call20 = tail call noundef nonnull align 8 dereferenceable(16) ptr @_ZNK8QuantLib6HandleINS_18YieldTermStructureEEptEv(ptr noundef nonnull align 8 dereferenceable(16) %termStructure_.i)
  %12 = load ptr, ptr %call20, align 8, !tbaa !39
  %cmp.not.i = icmp eq ptr %12, null
  br i1 %cmp.not.i, label %cond.false.i, label %_ZNK5boost10shared_ptrIN8QuantLib18YieldTermStructureEEptEv.exit, !prof !41

cond.false.i:                                     ; preds = %if.end
  tail call void @_ZN5boost16assertion_failedEPKcS1_S1_l(ptr noundef nonnull @.str.19, ptr noundef nonnull @__PRETTY_FUNCTION__._ZNK5boost10shared_ptrIN8QuantLib18YieldTermStructureEEptEv, ptr noundef nonnull @.str.20, i64 noundef 784)
  %.pre.i = load ptr, ptr %call20, align 8, !tbaa !39
  br label %_ZNK5boost10shared_ptrIN8QuantLib18YieldTermStructureEEptEv.exit

_ZNK5boost10shared_ptrIN8QuantLib18YieldTermStructureEEptEv.exit: ; preds = %if.end, %cond.false.i
  %13 = phi ptr [ %12, %if.end ], [ %.pre.i, %cond.false.i ]
  %call22 = tail call noundef double @_ZNK8QuantLib18YieldTermStructure8discountEdb(ptr noundef nonnull align 8 dereferenceable(152) %13, double noundef %bondMaturity, i1 noundef zeroext false)
  %call25 = tail call noundef nonnull align 8 dereferenceable(16) ptr @_ZNK8QuantLib6HandleINS_18YieldTermStructureEEptEv(ptr noundef nonnull align 8 dereferenceable(16) %termStructure_.i)
  %14 = load ptr, ptr %call25, align 8, !tbaa !39
  %cmp.not.i26 = icmp eq ptr %14, null
  br i1 %cmp.not.i26, label %cond.false.i27, label %_ZNK5boost10shared_ptrIN8QuantLib18YieldTermStructureEEptEv.exit29, !prof !41

cond.false.i27:                                   ; preds = %_ZNK5boost10shared_ptrIN8QuantLib18YieldTermStructureEEptEv.exit
  tail call void @_ZN5boost16assertion_failedEPKcS1_S1_l(ptr noundef nonnull @.str.19, ptr noundef nonnull @__PRETTY_FUNCTION__._ZNK5boost10shared_ptrIN8QuantLib18YieldTermStructureEEptEv, ptr noundef nonnull @.str.20, i64 noundef 784)
  %.pre.i28 = load ptr, ptr %call25, align 8, !tbaa !39
  br label %_ZNK5boost10shared_ptrIN8QuantLib18YieldTermStructureEEptEv.exit29

_ZNK5boost10shared_ptrIN8QuantLib18YieldTermStructureEEptEv.exit29: ; preds = %_ZNK5boost10shared_ptrIN8QuantLib18YieldTermStructureEEptEv.exit, %cond.false.i27
  %15 = phi ptr [ %14, %_ZNK5boost10shared_ptrIN8QuantLib18YieldTermStructureEEptEv.exit ], [ %.pre.i28, %cond.false.i27 ]
  %mul18 = fmul double %mul12.sink, %call17
  %call27 = tail call noundef double @_ZNK8QuantLib18YieldTermStructure8discountEdb(ptr noundef nonnull align 8 dereferenceable(152) %15, double noundef %maturity, i1 noundef zeroext false)
  %mul28 = fmul double %strike, %call27
  %call29 = tail call noundef double @_ZN8QuantLib12blackFormulaENS_6Option4TypeEddddd(i32 noundef %type, double noundef %mul28, double noundef %call22, double noundef %mul18, double noundef 1.000000e+00, double noundef 0.000000e+00)
  ret double %call29
}